; Function Attrs: mustprogress uwtable
define dso_local noundef zeroext i1 @_ZN17RealDiskInterface7MakeDirERKNSt7__cxx1112basic_stringIcSt11char_traitsIcESaIcEEE(ptr nonnull readnone align 8 captures(none) %0, ptr noundef nonnull readonly align 8 captures(none) dereferenceable(32) %1) unnamed_addr #0 align 2 {
  %.val = load ptr, ptr %1, align 8, !tbaa !24
  %3 = tail call noundef i32 @mkdir(ptr noundef readonly %.val, i32 noundef 511) #17
  %4 = icmp slt i32 %3, 0
  br i1 %4, label %5, label %12

5:                                                ; preds = %2
  %6 = tail call ptr @__errno_location() #19
  %7 = load i32, ptr %6, align 4, !tbaa !32
  %8 = icmp eq i32 %7, 17
  br i1 %8, label %12, label %9

9:                                                ; preds = %5
  %10 = load ptr, ptr %1, align 8, !tbaa !24
  %11 = tail call ptr @strerror(i32 noundef %7) #17
  tail call void (ptr, ...) @_Z5ErrorPKcz(ptr noundef nonnull @.str.8, ptr noundef %10, ptr noundef %11)
  br label %12

12:                                               ; preds = %2, %5, %9
  %.0 = phi i1 [ false, %9 ], [ true, %5 ], [ true, %2 ]
  ret i1 %.0
}